target datalayout = "e-m:e-p270:32:32-p271:32:32-p272:64:64-i64:64-i128:128-f80:128-n8:16:32:64-S128"
target triple = "x86_64-pc-linux-gnu"

%"class.duckdb_apache::thrift::TBase" = type { ptr }
%"class.duckdb_parquet::DecimalType" = type { %"class.duckdb_apache::thrift::TBase", i32, i32 }

; Function Attrs: mustprogress nounwind uwtable
define void @_ZN14duckdb_parquet11DecimalTypeC2ERKS0_(ptr noundef nonnull align 8 dereferenceable(16) %0, ptr noundef %1, ptr noundef nonnull align 8 dereferenceable(16) %2) unnamed_addr #1 align 2 {
  %4 = alloca ptr, align 8
  %5 = alloca ptr, align 8
  %6 = alloca ptr, align 8
  store ptr %0, ptr %4, align 8, !tbaa !152
  store ptr %1, ptr %5, align 8, !tbaa !24
  store ptr %2, ptr %6, align 8, !tbaa !152
  %7 = load ptr, ptr %4, align 8
  %8 = load ptr, ptr %5, align 8
  %9 = load ptr, ptr %8, align 8
  store ptr %9, ptr %7, align 8, !tbaa !36
  %10 = getelementptr inbounds ptr, ptr %8, i64 1
  %11 = load ptr, ptr %10, align 8
  %12 = load ptr, ptr %7, align 8, !tbaa !36
  %13 = getelementptr i8, ptr %12, i64 -48
  %14 = load i64, ptr %13, align 8
  %15 = getelementptr inbounds i8, ptr %7, i64 %14
  store ptr %11, ptr %15, align 8, !tbaa !36
  %16 = load ptr, ptr %6, align 8, !tbaa !152
  %17 = getelementptr inbounds nuw %"class.duckdb_parquet::DecimalType", ptr %16, i32 0, i32 1
  %18 = load i32, ptr %17, align 8, !tbaa !154
  %19 = getelementptr inbounds nuw %"class.duckdb_parquet::DecimalType", ptr %7, i32 0, i32 1
  store i32 %18, ptr %19, align 8, !tbaa !154
  %20 = load ptr, ptr %6, align 8, !tbaa !152
  %21 = getelementptr inbounds nuw %"class.duckdb_parquet::DecimalType", ptr %20, i32 0, i32 2
  %22 = load i32, ptr %21, align 4, !tbaa !156
  %23 = getelementptr inbounds nuw %"class.duckdb_parquet::DecimalType", ptr %7, i32 0, i32 2
  store i32 %22, ptr %23, align 4, !tbaa !156
  ret void
}